target datalayout = "e-m:e-p270:32:32-p271:32:32-p272:64:64-i64:64-i128:128-f80:128-n8:16:32:64-S128"
target triple = "x86_64-pc-linux-gnu"

%struct.WebPDecBuffer = type { i32, i32, i32, i32, %union.anon, [4 x i32], ptr }
%union.anon = type { %struct.WebPYUVABuffer }
%struct.WebPYUVABuffer = type { ptr, ptr, ptr, ptr, i32, i32, i32, i32, i64, i64, i64, i64 }

@.str.1 = private unnamed_addr constant [14 x i8] c"P5\0A%u %u\0A255\0A\00", align 1

; Function Attrs: nounwind uwtable
define hidden i32 @WebPWriteAlphaPlane(ptr noundef %0, ptr noundef %1) #0 {
  %3 = alloca i32, align 4
  %4 = alloca ptr, align 8
  %5 = alloca ptr, align 8
  %6 = alloca i32, align 4
  %7 = alloca i32, align 4
  %8 = alloca ptr, align 8
  %9 = alloca i32, align 4
  %10 = alloca i32, align 4
  %11 = alloca i32, align 4
  store ptr %0, ptr %4, align 8, !tbaa !4
  store ptr %1, ptr %5, align 8, !tbaa !9
  %12 = load ptr, ptr %4, align 8, !tbaa !4
  %13 = icmp eq ptr %12, null
  br i1 %13, label %17, label %14

14:                                               ; preds = %2
  %15 = load ptr, ptr %5, align 8, !tbaa !9
  %16 = icmp eq ptr %15, null
  br i1 %16, label %17, label %18

17:                                               ; preds = %14, %2
  store i32 0, ptr %3, align 4
  br label %63

18:                                               ; preds = %14
  call void @llvm.lifetime.start.p0(i64 4, ptr %6) #9
  %19 = load ptr, ptr %5, align 8, !tbaa !9
  %20 = getelementptr inbounds nuw %struct.WebPDecBuffer, ptr %19, i32 0, i32 1
  %21 = load i32, ptr %20, align 4, !tbaa !15
  store i32 %21, ptr %6, align 4, !tbaa !19
  call void @llvm.lifetime.start.p0(i64 4, ptr %7) #9
  %22 = load ptr, ptr %5, align 8, !tbaa !9
  %23 = getelementptr inbounds nuw %struct.WebPDecBuffer, ptr %22, i32 0, i32 2
  %24 = load i32, ptr %23, align 8, !tbaa !20
  store i32 %24, ptr %7, align 4, !tbaa !19
  call void @llvm.lifetime.start.p0(i64 8, ptr %8) #9
  %25 = load ptr, ptr %5, align 8, !tbaa !9
  %26 = getelementptr inbounds nuw %struct.WebPDecBuffer, ptr %25, i32 0, i32 4
  %27 = getelementptr inbounds nuw %struct.WebPYUVABuffer, ptr %26, i32 0, i32 3
  %28 = load ptr, ptr %27, align 8, !tbaa !21
  store ptr %28, ptr %8, align 8, !tbaa !22
  call void @llvm.lifetime.start.p0(i64 4, ptr %9) #9
  %29 = load ptr, ptr %5, align 8, !tbaa !9
  %30 = getelementptr inbounds nuw %struct.WebPDecBuffer, ptr %29, i32 0, i32 4
  %31 = getelementptr inbounds nuw %struct.WebPYUVABuffer, ptr %30, i32 0, i32 7
  %32 = load i32, ptr %31, align 4, !tbaa !21
  store i32 %32, ptr %9, align 4, !tbaa !19
  call void @llvm.lifetime.start.p0(i64 4, ptr %10) #9
  %33 = load ptr, ptr %8, align 8, !tbaa !22
  %34 = icmp eq ptr %33, null
  br i1 %34, label %35, label %36

35:                                               ; preds = %18
  store i32 0, ptr %3, align 4
  store i32 1, ptr %11, align 4
  br label %62

36:                                               ; preds = %18
  %37 = load ptr, ptr %4, align 8, !tbaa !4
  %38 = load i32, ptr %6, align 4, !tbaa !19
  %39 = load i32, ptr %7, align 4, !tbaa !19
  %40 = call i32 (ptr, ptr, ...) @fprintf(ptr noundef %37, ptr noundef @.str.1, i32 noundef %38, i32 noundef %39) #9
  store i32 0, ptr %10, align 4, !tbaa !19
  br label %41

41:                                               ; preds = %58, %36
  %42 = load i32, ptr %10, align 4, !tbaa !19
  %43 = load i32, ptr %7, align 4, !tbaa !19
  %44 = icmp ult i32 %42, %43
  br i1 %44, label %45, label %61

45:                                               ; preds = %41
  %46 = load ptr, ptr %8, align 8, !tbaa !22
  %47 = load i32, ptr %6, align 4, !tbaa !19
  %48 = zext i32 %47 to i64
  %49 = load ptr, ptr %4, align 8, !tbaa !4
  %50 = call i64 @fwrite(ptr noundef %46, i64 noundef %48, i64 noundef 1, ptr noundef %49)
  %51 = icmp ne i64 %50, 1
  br i1 %51, label %52, label %53

52:                                               ; preds = %45
  store i32 0, ptr %3, align 4
  store i32 1, ptr %11, align 4
  br label %62

53:                                               ; preds = %45
  %54 = load i32, ptr %9, align 4, !tbaa !19
  %55 = load ptr, ptr %8, align 8, !tbaa !22
  %56 = sext i32 %54 to i64
  %57 = getelementptr inbounds i8, ptr %55, i64 %56
  store ptr %57, ptr %8, align 8, !tbaa !22
  br label %58

58:                                               ; preds = %53
  %59 = load i32, ptr %10, align 4, !tbaa !19
  %60 = add i32 %59, 1
  store i32 %60, ptr %10, align 4, !tbaa !19
  br label %41, !llvm.loop !32

61:                                               ; preds = %41
  store i32 1, ptr %3, align 4
  store i32 1, ptr %11, align 4
  br label %62

62:                                               ; preds = %61, %52, %35
  call void @llvm.lifetime.end.p0(i64 4, ptr %10) #9
  call void @llvm.lifetime.end.p0(i64 4, ptr %9) #9
  call void @llvm.lifetime.end.p0(i64 8, ptr %8) #9
  call void @llvm.lifetime.end.p0(i64 4, ptr %7) #9
  call void @llvm.lifetime.end.p0(i64 4, ptr %6) #9
  br label %63

63:                                               ; preds = %62, %17
  %64 = load i32, ptr %3, align 4
  ret i32 %64
}