; Function Attrs: nofree nounwind uwtable
define hidden range(i32 0, 2) i32 @WebPWriteAlphaPlane(ptr noundef captures(address_is_null) %0, ptr noundef readonly captures(address_is_null) %1) local_unnamed_addr #6 {
  %3 = icmp eq ptr %0, null
  %4 = icmp eq ptr %1, null
  %or.cond = or i1 %3, %4
  br i1 %or.cond, label %.loopexit, label %5

5:                                                ; preds = %2
  %6 = getelementptr inbounds nuw i8, ptr %1, i64 8
  %7 = load i32, ptr %6, align 8, !tbaa !15
  %8 = getelementptr inbounds nuw i8, ptr %1, i64 40
  %9 = load ptr, ptr %8, align 8, !tbaa !16
  %10 = getelementptr inbounds nuw i8, ptr %1, i64 60
  %11 = load i32, ptr %10, align 4, !tbaa !16
  %12 = icmp eq ptr %9, null
  br i1 %12, label %.loopexit, label %13

13:                                               ; preds = %5
  %14 = getelementptr inbounds nuw i8, ptr %1, i64 4
  %15 = load i32, ptr %14, align 4, !tbaa !11
  %16 = tail call i32 (ptr, ptr, ...) @fprintf(ptr noundef nonnull %0, ptr noundef nonnull @.str.1, i32 noundef %15, i32 noundef %7) #9
  %17 = zext i32 %15 to i64
  %.not28 = icmp eq i32 %7, 0
  br i1 %.not28, label %.loopexit, label %.lr.ph

.lr.ph:                                           ; preds = %13
  %18 = sext i32 %11 to i64
  br label %19

19:                                               ; preds = %.lr.ph, %21
  %.025 = phi i32 [ 0, %.lr.ph ], [ %23, %21 ]
  %.02024 = phi ptr [ %9, %.lr.ph ], [ %22, %21 ]
  %20 = tail call i64 @fwrite(ptr noundef %.02024, i64 noundef %17, i64 noundef 1, ptr noundef nonnull %0)
  %.not = icmp eq i64 %20, 1
  br i1 %.not, label %21, label %.loopexit

21:                                               ; preds = %19
  %22 = getelementptr inbounds i8, ptr %.02024, i64 %18
  %23 = add nuw i32 %.025, 1
  %exitcond.not = icmp eq i32 %23, %7
  br i1 %exitcond.not, label %.loopexit, label %19, !llvm.loop !25

.loopexit:                                        ; preds = %21, %19, %13, %5, %2
  %.019 = phi i32 [ 0, %2 ], [ 0, %5 ], [ 1, %13 ], [ 1, %21 ], [ 0, %19 ]
  ret i32 %.019
}